target datalayout = "e-m:e-p270:32:32-p271:32:32-p272:64:64-i64:64-i128:128-f80:128-n8:16:32:64-S128"
target triple = "x86_64-pc-linux-gnu"

%"class.Ipopt::Ma27TSolverInterface" = type <{ %"class.Ipopt::SparseSymLinearSolverInterface.base", [7 x i8], %"class.Ipopt::SmartPtr", ptr, ptr, ptr, ptr, i32, i32, i32, i8, i8, i8, i8, double, double, double, double, double, i8, i8, i8, i8, [30 x i32], [4 x i8], [5 x double], i32, [4 x i8], ptr, ptr, i32, i32, i32, [4 x i8], ptr, i8, i8, [6 x i8] }>
%"class.Ipopt::SparseSymLinearSolverInterface.base" = type { %"class.Ipopt::AlgorithmStrategyObject.base" }
%"class.Ipopt::AlgorithmStrategyObject.base" = type <{ %"class.Ipopt::ReferencedObject.base", [4 x i8], %"class.Ipopt::SmartPtr.0", %"class.Ipopt::SmartPtr.1", %"class.Ipopt::SmartPtr.2", %"class.Ipopt::SmartPtr.3", i8 }>
%"class.Ipopt::ReferencedObject.base" = type <{ ptr, i32 }>
%"class.Ipopt::SmartPtr.0" = type { ptr }
%"class.Ipopt::SmartPtr.1" = type { ptr }
%"class.Ipopt::SmartPtr.2" = type { ptr }
%"class.Ipopt::SmartPtr.3" = type { ptr }
%"class.Ipopt::SmartPtr" = type { ptr }
%"class.std::__cxx11::basic_string" = type { %"struct.std::__cxx11::basic_string<char>::_Alloc_hider", i64, %union.anon }
%"struct.std::__cxx11::basic_string<char>::_Alloc_hider" = type { ptr }
%union.anon = type { i64, [8 x i8] }
%"class.std::allocator.11" = type { i8 }

@.str.29 = private unnamed_addr constant [19 x i8] c" evaluated false: \00", align 1
@.str.31 = private unnamed_addr constant [51 x i8] c"Algorithm/LinearSolvers/IpMa27TSolverInterface.cpp\00", align 1
@_ZTIN5Ipopt17INVALID_WARMSTARTE = linkonce_odr constant { ptr, ptr, ptr } { ptr getelementptr inbounds (ptr, ptr @_ZTVN10__cxxabiv120__si_class_type_infoE, i64 2), ptr @_ZTSN5Ipopt17INVALID_WARMSTARTE, ptr @_ZTIN5Ipopt14IpoptExceptionE }, comdat, align 8
@.str.35 = private unnamed_addr constant [37 x i8] c"dim_ == dim && nonzeros_ == nonzeros\00", align 1
@.str.36 = private unnamed_addr constant [94 x i8] c"Ma27TSolverInterface called with warm_start_same_structure, but the problem size has changed.\00", align 1

; Function Attrs: mustprogress uwtable
define noundef i32 @_ZN5Ipopt20Ma27TSolverInterface19InitializeStructureEiiPKiS2_(ptr noundef nonnull align 8 dereferenceable(370) %0, i32 noundef %1, i32 noundef %2, ptr noundef %3, ptr noundef %4) unnamed_addr #4 align 2 personality ptr @__gxx_personality_v0 {
  %6 = alloca i32, align 4
  %7 = alloca ptr, align 8
  %8 = alloca i32, align 4
  %9 = alloca i32, align 4
  %10 = alloca ptr, align 8
  %11 = alloca ptr, align 8
  %12 = alloca i32, align 4
  %13 = alloca %"class.std::__cxx11::basic_string", align 8
  %14 = alloca %"class.std::allocator.11", align 1
  %15 = alloca ptr, align 8
  %16 = alloca i32, align 4
  %17 = alloca %"class.std::__cxx11::basic_string", align 8
  %18 = alloca %"class.std::allocator.11", align 1
  %19 = alloca i1, align 1
  store ptr %0, ptr %7, align 8
  store i32 %1, ptr %8, align 4
  store i32 %2, ptr %9, align 4
  store ptr %3, ptr %10, align 8
  store ptr %4, ptr %11, align 8
  %20 = load ptr, ptr %7, align 8
  store i32 0, ptr %12, align 4
  %21 = getelementptr inbounds %"class.Ipopt::Ma27TSolverInterface", ptr %20, i32 0, i32 19
  %22 = load i8, ptr %21, align 8
  %23 = trunc i8 %22 to i1
  br i1 %23, label %37, label %24

24:                                               ; preds = %5
  %25 = load i32, ptr %8, align 4
  %26 = getelementptr inbounds %"class.Ipopt::Ma27TSolverInterface", ptr %20, i32 0, i32 7
  store i32 %25, ptr %26, align 8
  %27 = load i32, ptr %9, align 4
  %28 = getelementptr inbounds %"class.Ipopt::Ma27TSolverInterface", ptr %20, i32 0, i32 8
  store i32 %27, ptr %28, align 4
  %29 = load ptr, ptr %10, align 8
  %30 = load ptr, ptr %11, align 8
  %31 = call noundef i32 @_ZN5Ipopt20Ma27TSolverInterface21SymbolicFactorizationEPKiS2_(ptr noundef nonnull align 8 dereferenceable(370) %20, ptr noundef %29, ptr noundef %30)
  store i32 %31, ptr %12, align 4
  %32 = load i32, ptr %12, align 4
  %33 = icmp ne i32 %32, 0
  br i1 %33, label %34, label %36

34:                                               ; preds = %24
  %35 = load i32, ptr %12, align 4
  store i32 %35, ptr %6, align 4
  br label %81

36:                                               ; preds = %24
  br label %78

37:                                               ; preds = %5
  %38 = getelementptr inbounds %"class.Ipopt::Ma27TSolverInterface", ptr %20, i32 0, i32 7
  %39 = load i32, ptr %38, align 8
  %40 = load i32, ptr %8, align 4
  %41 = icmp eq i32 %39, %40
  br i1 %41, label %42, label %47

42:                                               ; preds = %37
  %43 = getelementptr inbounds %"class.Ipopt::Ma27TSolverInterface", ptr %20, i32 0, i32 8
  %44 = load i32, ptr %43, align 4
  %45 = load i32, ptr %9, align 4
  %46 = icmp eq i32 %44, %45
  br i1 %46, label %77, label %47

47:                                               ; preds = %42, %37
  call void @_ZNSaIcEC1Ev(ptr noundef nonnull align 1 dereferenceable(1) %14) #3
  invoke void @_ZNSt7__cxx1112basic_stringIcSt11char_traitsIcESaIcEEC2IS3_EEPKcRKS3_(ptr noundef nonnull align 8 dereferenceable(32) %13, ptr noundef @.str.35, ptr noundef nonnull align 1 dereferenceable(1) %14)
          to label %48 unwind label %56

48:                                               ; preds = %47
  call void @_ZNSaIcED1Ev(ptr noundef nonnull align 1 dereferenceable(1) %14) #3
  %49 = invoke noundef nonnull align 8 dereferenceable(32) ptr @_ZNSt7__cxx1112basic_stringIcSt11char_traitsIcESaIcEEpLEPKc(ptr noundef nonnull align 8 dereferenceable(32) %13, ptr noundef @.str.29)
          to label %50 unwind label %60

50:                                               ; preds = %48
  %51 = invoke noundef nonnull align 8 dereferenceable(32) ptr @_ZNSt7__cxx1112basic_stringIcSt11char_traitsIcESaIcEEpLEPKc(ptr noundef nonnull align 8 dereferenceable(32) %13, ptr noundef @.str.36)
          to label %52 unwind label %60

52:                                               ; preds = %50
  store i1 true, ptr %19, align 1
  %53 = call ptr @__cxa_allocate_exception(i64 112) #3
  call void @_ZNSaIcEC1Ev(ptr noundef nonnull align 1 dereferenceable(1) %18) #3
  invoke void @_ZNSt7__cxx1112basic_stringIcSt11char_traitsIcESaIcEEC2IS3_EEPKcRKS3_(ptr noundef nonnull align 8 dereferenceable(32) %17, ptr noundef @.str.31, ptr noundef nonnull align 1 dereferenceable(1) %18)
          to label %54 unwind label %64

54:                                               ; preds = %52
  invoke void @_ZN5Ipopt17INVALID_WARMSTARTC2ERKNSt7__cxx1112basic_stringIcSt11char_traitsIcESaIcEEES8_i(ptr noundef nonnull align 8 dereferenceable(112) %53, ptr noundef nonnull align 8 dereferenceable(32) %13, ptr noundef nonnull align 8 dereferenceable(32) %17, i32 noundef 350)
          to label %55 unwind label %68

55:                                               ; preds = %54
  store i1 false, ptr %19, align 1
  invoke void @__cxa_throw(ptr %53, ptr @_ZTIN5Ipopt17INVALID_WARMSTARTE, ptr @_ZN5Ipopt17INVALID_WARMSTARTD2Ev) #14
          to label %88 unwind label %68

56:                                               ; preds = %47
  %57 = landingpad { ptr, i32 }
          cleanup
  %58 = extractvalue { ptr, i32 } %57, 0
  store ptr %58, ptr %15, align 8
  %59 = extractvalue { ptr, i32 } %57, 1
  store i32 %59, ptr %16, align 4
  call void @_ZNSaIcED1Ev(ptr noundef nonnull align 1 dereferenceable(1) %14) #3
  br label %83

60:                                               ; preds = %50, %48
  %61 = landingpad { ptr, i32 }
          cleanup
  %62 = extractvalue { ptr, i32 } %61, 0
  store ptr %62, ptr %15, align 8
  %63 = extractvalue { ptr, i32 } %61, 1
  store i32 %63, ptr %16, align 4
  br label %76

64:                                               ; preds = %52
  %65 = landingpad { ptr, i32 }
          cleanup
  %66 = extractvalue { ptr, i32 } %65, 0
  store ptr %66, ptr %15, align 8
  %67 = extractvalue { ptr, i32 } %65, 1
  store i32 %67, ptr %16, align 4
  br label %72

68:                                               ; preds = %55, %54
  %69 = landingpad { ptr, i32 }
          cleanup
  %70 = extractvalue { ptr, i32 } %69, 0
  store ptr %70, ptr %15, align 8
  %71 = extractvalue { ptr, i32 } %69, 1
  store i32 %71, ptr %16, align 4
  call void @_ZNSt7__cxx1112basic_stringIcSt11char_traitsIcESaIcEED1Ev(ptr noundef nonnull align 8 dereferenceable(32) %17) #3
  br label %72

72:                                               ; preds = %68, %64
  call void @_ZNSaIcED1Ev(ptr noundef nonnull align 1 dereferenceable(1) %18) #3
  %73 = load i1, ptr %19, align 1
  br i1 %73, label %74, label %75

74:                                               ; preds = %72
  call void @__cxa_free_exception(ptr %53) #3
  br label %75

75:                                               ; preds = %74, %72
  br label %76

76:                                               ; preds = %75, %60
  call void @_ZNSt7__cxx1112basic_stringIcSt11char_traitsIcESaIcEED1Ev(ptr noundef nonnull align 8 dereferenceable(32) %13) #3
  br label %83

77:                                               ; preds = %42
  br label %78

78:                                               ; preds = %77, %36
  %79 = getelementptr inbounds %"class.Ipopt::Ma27TSolverInterface", ptr %20, i32 0, i32 10
  store i8 1, ptr %79, align 4
  %80 = load i32, ptr %12, align 4
  store i32 %80, ptr %6, align 4
  br label %81

81:                                               ; preds = %78, %34
  %82 = load i32, ptr %6, align 4
  ret i32 %82

83:                                               ; preds = %76, %56
  %84 = load ptr, ptr %15, align 8
  %85 = load i32, ptr %16, align 4
  %86 = insertvalue { ptr, i32 } poison, ptr %84, 0
  %87 = insertvalue { ptr, i32 } %86, i32 %85, 1
  resume { ptr, i32 } %87

88:                                               ; preds = %55
  unreachable
}