; Function Attrs: mustprogress uwtable
define noundef i32 @_ZN5Ipopt20Ma27TSolverInterface19InitializeStructureEiiPKiS2_(ptr noundef nonnull align 8 dereferenceable(370) %0, i32 noundef %1, i32 noundef %2, ptr noundef %3, ptr noundef %4) unnamed_addr #3 align 2 personality ptr @__gxx_personality_v0 {
  %6 = alloca %"class.std::__cxx11::basic_string", align 8
  %7 = alloca %"class.std::allocator.11", align 1
  %8 = alloca %"class.std::__cxx11::basic_string", align 8
  %9 = alloca %"class.std::allocator.11", align 1
  %10 = getelementptr inbounds i8, ptr %0, i64 152
  %11 = load i8, ptr %10, align 8
  %12 = and i8 %11, 1
  %.not = icmp eq i8 %12, 0
  %13 = getelementptr inbounds i8, ptr %0, i64 96
  br i1 %.not, label %14, label %17

14:                                               ; preds = %5
  store i32 %1, ptr %13, align 8
  %15 = getelementptr inbounds i8, ptr %0, i64 100
  store i32 %2, ptr %15, align 4
  %16 = tail call noundef i32 @_ZN5Ipopt20Ma27TSolverInterface21SymbolicFactorizationEPKiS2_(ptr noundef nonnull align 8 dereferenceable(370) %0, ptr noundef %3, ptr noundef %4), !range !4
  %.not22 = icmp eq i32 %16, 0
  br i1 %.not22, label %41, label %43

17:                                               ; preds = %5
  %18 = load i32, ptr %13, align 8
  %19 = icmp eq i32 %18, %1
  %20 = getelementptr inbounds i8, ptr %0, i64 100
  %21 = load i32, ptr %20, align 4
  %22 = icmp eq i32 %21, %2
  %or.cond = select i1 %19, i1 %22, i1 false
  br i1 %or.cond, label %41, label %23

23:                                               ; preds = %17
  call void @_ZNSaIcEC1Ev(ptr noundef nonnull align 1 dereferenceable(1) %7) #18
  invoke void @_ZNSt7__cxx1112basic_stringIcSt11char_traitsIcESaIcEEC2IS3_EEPKcRKS3_(ptr noundef nonnull align 8 dereferenceable(32) %6, ptr noundef nonnull @.str.35, ptr noundef nonnull align 1 dereferenceable(1) %7)
          to label %24 unwind label %32

24:                                               ; preds = %23
  call void @_ZNSaIcED1Ev(ptr noundef nonnull align 1 dereferenceable(1) %7) #18
  %25 = invoke noundef nonnull align 8 dereferenceable(32) ptr @_ZNSt7__cxx1112basic_stringIcSt11char_traitsIcESaIcEEpLEPKc(ptr noundef nonnull align 8 dereferenceable(32) %6, ptr noundef nonnull @.str.29)
          to label %26 unwind label %34

26:                                               ; preds = %24
  %27 = invoke noundef nonnull align 8 dereferenceable(32) ptr @_ZNSt7__cxx1112basic_stringIcSt11char_traitsIcESaIcEEpLEPKc(ptr noundef nonnull align 8 dereferenceable(32) %6, ptr noundef nonnull @.str.36)
          to label %28 unwind label %34

28:                                               ; preds = %26
  %29 = call ptr @__cxa_allocate_exception(i64 112) #18
  call void @_ZNSaIcEC1Ev(ptr noundef nonnull align 1 dereferenceable(1) %9) #18
  invoke void @_ZNSt7__cxx1112basic_stringIcSt11char_traitsIcESaIcEEC2IS3_EEPKcRKS3_(ptr noundef nonnull align 8 dereferenceable(32) %8, ptr noundef nonnull @.str.31, ptr noundef nonnull align 1 dereferenceable(1) %9)
          to label %30 unwind label %.thread

30:                                               ; preds = %28
  invoke void @_ZN5Ipopt17INVALID_WARMSTARTC2ERKNSt7__cxx1112basic_stringIcSt11char_traitsIcESaIcEEES8_i(ptr noundef nonnull align 8 dereferenceable(112) %29, ptr noundef nonnull align 8 dereferenceable(32) %6, ptr noundef nonnull align 8 dereferenceable(32) %8, i32 noundef 350)
          to label %31 unwind label %37

31:                                               ; preds = %30
  invoke void @__cxa_throw(ptr nonnull %29, ptr nonnull @_ZTIN5Ipopt17INVALID_WARMSTARTE, ptr nonnull @_ZN5Ipopt17INVALID_WARMSTARTD2Ev) #20
          to label %45 unwind label %37

32:                                               ; preds = %23
  %33 = landingpad { ptr, i32 }
          cleanup
  call void @_ZNSaIcED1Ev(ptr noundef nonnull align 1 dereferenceable(1) %7) #18
  br label %44

34:                                               ; preds = %26, %24
  %35 = landingpad { ptr, i32 }
          cleanup
  br label %40

.thread:                                          ; preds = %28
  %36 = landingpad { ptr, i32 }
          cleanup
  call void @_ZNSaIcED1Ev(ptr noundef nonnull align 1 dereferenceable(1) %9) #18
  br label %39

37:                                               ; preds = %30, %31
  %.0 = phi i1 [ false, %31 ], [ true, %30 ]
  %38 = landingpad { ptr, i32 }
          cleanup
  call void @_ZNSt7__cxx1112basic_stringIcSt11char_traitsIcESaIcEED1Ev(ptr noundef nonnull align 8 dereferenceable(32) %8) #18
  call void @_ZNSaIcED1Ev(ptr noundef nonnull align 1 dereferenceable(1) %9) #18
  br i1 %.0, label %39, label %40

39:                                               ; preds = %.thread, %37
  %.pn30 = phi { ptr, i32 } [ %36, %.thread ], [ %38, %37 ]
  call void @__cxa_free_exception(ptr %29) #18
  br label %40

40:                                               ; preds = %37, %39, %34
  %.pn.pn = phi { ptr, i32 } [ %.pn30, %39 ], [ %38, %37 ], [ %35, %34 ]
  call void @_ZNSt7__cxx1112basic_stringIcSt11char_traitsIcESaIcEED1Ev(ptr noundef nonnull align 8 dereferenceable(32) %6) #18
  br label %44

41:                                               ; preds = %17, %14
  %42 = getelementptr inbounds i8, ptr %0, i64 108
  store i8 1, ptr %42, align 4
  br label %43

43:                                               ; preds = %14, %41
  %.019 = phi i32 [ 0, %41 ], [ %16, %14 ]
  ret i32 %.019

44:                                               ; preds = %40, %32
  %.pn.pn.pn = phi { ptr, i32 } [ %.pn.pn, %40 ], [ %33, %32 ]
  resume { ptr, i32 } %.pn.pn.pn

45:                                               ; preds = %31
  unreachable
}